; Function Attrs: null_pointer_is_valid sspstrong uwtable
define internal noundef i32 @dissect_kafka_offset_commit_response_response(ptr noundef %0, ptr noundef %1, ptr noundef %2, i32 noundef %3, i16 noundef signext %4) #0 {
  %6 = alloca ptr, align 8
  %7 = alloca i32, align 4
  %8 = alloca i32, align 4
  call void @llvm.lifetime.start.p0(i64 8, ptr nonnull %6) #9
  call void @llvm.lifetime.start.p0(i64 4, ptr nonnull %7) #9
  call void @llvm.lifetime.start.p0(i64 4, ptr nonnull %8) #9
  %9 = load i32, ptr @ett_kafka_topic, align 4
  %10 = call ptr @proto_tree_add_subtree(ptr noundef %2, ptr noundef %0, i32 noundef %3, i32 noundef -1, i32 noundef %9, ptr noundef nonnull %6, ptr noundef nonnull @.str.558)
  %11 = load i32, ptr @hf_kafka_topic_name, align 4
  %12 = icmp sgt i16 %4, 7
  %13 = zext i1 %12 to i32
  %14 = call fastcc i32 @dissect_kafka_string(ptr noundef %10, i32 noundef %11, ptr noundef %0, ptr noundef %1, i32 noundef %3, i32 noundef %13, ptr noundef nonnull %7, ptr noundef nonnull %8)
  %15 = call fastcc i32 @dissect_kafka_array(ptr noundef %10, ptr noundef %0, ptr noundef %1, i32 noundef %14, i32 noundef %13, i16 noundef signext %4, ptr noundef nonnull @dissect_kafka_offset_commit_response_partition_response, ptr noundef null)
  br i1 %12, label %16, label %18

16:                                               ; preds = %5
  %17 = call fastcc i32 @dissect_kafka_tagged_fields(ptr noundef %0, ptr noundef %1, ptr noundef %10, i32 noundef %15)
  br label %18

18:                                               ; preds = %16, %5
  %.0 = phi i32 [ %17, %16 ], [ %15, %5 ]
  %19 = load ptr, ptr %6, align 8
  call void @proto_item_set_end(ptr noundef %19, ptr noundef %0, i32 noundef %.0)
  %20 = load ptr, ptr %6, align 8
  %21 = getelementptr inbounds nuw i8, ptr %1, i64 408
  %22 = load ptr, ptr %21, align 8
  %23 = load i32, ptr %7, align 4
  %24 = load i32, ptr %8, align 4
  %25 = call ptr @tvb_get_string_enc(ptr noundef %22, ptr noundef %0, i32 noundef %23, i32 noundef %24, i32 noundef 2)
  call void (ptr, ptr, ...) @proto_item_append_text(ptr noundef %20, ptr noundef nonnull @.str.642, ptr noundef %25)
  call void @llvm.lifetime.end.p0(i64 4, ptr nonnull %8) #9
  call void @llvm.lifetime.end.p0(i64 4, ptr nonnull %7) #9
  call void @llvm.lifetime.end.p0(i64 8, ptr nonnull %6) #9
  ret i32 %.0
}